target datalayout = "e-m:e-p270:32:32-p271:32:32-p272:64:64-i64:64-i128:128-f80:128-n8:16:32:64-S128"
target triple = "x86_64-pc-linux-gnu"

%struct.DdManager = type { %struct.DdNode, ptr, ptr, ptr, ptr, ptr, ptr, ptr, i32, i32, double, double, double, i32, i32, i32, i32, i32, i32, ptr, ptr, %struct.DdSubtable, i32, i32, i32, i32, i32, i32, i32, double, i32, i32, i32, ptr, i64, double, i32, ptr, ptr, ptr, ptr, ptr, ptr, ptr, i32, ptr, ptr, ptr, ptr, ptr, ptr, i32, i32, i32, double, i32, i32, i32, i32, double, double, i32, i32, i32, i32, i32, i32, i32, i32, i32, ptr, ptr, i32, i32, i32, i32, i32, i32, ptr, ptr, ptr, ptr, ptr, ptr, ptr, ptr, i32, i64, i64, i64, i32, i64, i64, double, double, double, double, double, double, i32, ptr, ptr, i64 }
%struct.DdNode = type { i32, i32, ptr, %union.anon, i64 }
%union.anon = type { %struct.DdChildren }
%struct.DdChildren = type { ptr, ptr }
%struct.DdSubtable = type { ptr, i32, i32, i32, i32, i32, i32, i32, i32, i32, i32, i32 }

; Function Attrs: nounwind uwtable
define ptr @Cudd_RemapOverApprox(ptr noundef %0, ptr noundef %1, i32 noundef %2, i32 noundef %3, double noundef %4) #0 {
  %6 = alloca ptr, align 8
  %7 = alloca ptr, align 8
  %8 = alloca i32, align 4
  %9 = alloca i32, align 4
  %10 = alloca double, align 8
  %11 = alloca ptr, align 8
  %12 = alloca ptr, align 8
  store ptr %0, ptr %6, align 8, !tbaa !3
  store ptr %1, ptr %7, align 8, !tbaa !8
  store i32 %2, ptr %8, align 4, !tbaa !10
  store i32 %3, ptr %9, align 4, !tbaa !10
  store double %4, ptr %10, align 8, !tbaa !12
  call void @llvm.lifetime.start.p0(i64 8, ptr %11) #7
  call void @llvm.lifetime.start.p0(i64 8, ptr %12) #7
  %13 = load ptr, ptr %7, align 8, !tbaa !8
  %14 = ptrtoint ptr %13 to i64
  %15 = xor i64 %14, 1
  %16 = inttoptr i64 %15 to ptr
  store ptr %16, ptr %12, align 8, !tbaa !8
  br label %17

17:                                               ; preds = %26, %5
  %18 = load ptr, ptr %6, align 8, !tbaa !3
  %19 = getelementptr inbounds nuw %struct.DdManager, ptr %18, i32 0, i32 55
  store i32 0, ptr %19, align 8, !tbaa !14
  %20 = load ptr, ptr %6, align 8, !tbaa !3
  %21 = load ptr, ptr %12, align 8, !tbaa !8
  %22 = load i32, ptr %8, align 4, !tbaa !10
  %23 = load i32, ptr %9, align 4, !tbaa !10
  %24 = load double, ptr %10, align 8, !tbaa !12
  %25 = call ptr @cuddRemapUnderApprox(ptr noundef %20, ptr noundef %21, i32 noundef %22, i32 noundef %23, double noundef %24)
  store ptr %25, ptr %11, align 8, !tbaa !8
  br label %26

26:                                               ; preds = %17
  %27 = load ptr, ptr %6, align 8, !tbaa !3
  %28 = getelementptr inbounds nuw %struct.DdManager, ptr %27, i32 0, i32 55
  %29 = load i32, ptr %28, align 8, !tbaa !14
  %30 = icmp eq i32 %29, 1
  br i1 %30, label %17, label %31, !llvm.loop !44

31:                                               ; preds = %26
  %32 = load ptr, ptr %11, align 8, !tbaa !8
  %33 = ptrtoint ptr %32 to i64
  %34 = load ptr, ptr %11, align 8, !tbaa !8
  %35 = icmp ne ptr %34, null
  %36 = zext i1 %35 to i32
  %37 = sext i32 %36 to i64
  %38 = xor i64 %33, %37
  %39 = inttoptr i64 %38 to ptr
  call void @llvm.lifetime.end.p0(i64 8, ptr %12) #7
  call void @llvm.lifetime.end.p0(i64 8, ptr %11) #7
  ret ptr %39
}