; Function Attrs: nounwind uwtable
define ptr @Cudd_RemapOverApprox(ptr noundef initializes((448, 452)) %0, ptr noundef %1, i32 noundef %2, i32 noundef %3, double noundef %4) local_unnamed_addr #0 {
  %6 = ptrtoint ptr %1 to i64
  %7 = xor i64 %6, 1
  %8 = inttoptr i64 %7 to ptr
  %9 = getelementptr inbounds nuw i8, ptr %0, i64 448
  br label %10

10:                                               ; preds = %10, %5
  store i32 0, ptr %9, align 8, !tbaa !3
  %11 = tail call ptr @cuddRemapUnderApprox(ptr noundef %0, ptr noundef %8, i32 noundef %2, i32 noundef %3, double noundef %4)
  %12 = load i32, ptr %9, align 8, !tbaa !3
  %13 = icmp eq i32 %12, 1
  br i1 %13, label %10, label %14, !llvm.loop !63

14:                                               ; preds = %10
  %15 = ptrtoint ptr %11 to i64
  %16 = icmp ne ptr %11, null
  %17 = zext i1 %16 to i64
  %18 = xor i64 %17, %15
  %19 = inttoptr i64 %18 to ptr
  ret ptr %19
}